; ModuleID = '16/354.c'
source_filename = "16/354.c"
target datalayout = "e-m:e-p270:32:32-p271:32:32-p272:64:64-i64:64-f80:128-n8:16:32:64-S128"
target triple = "x86_64-pc-linux-gnu"

@.str = private unnamed_addr constant [3 x i8] c"%d\00", align 1

; Function Attrs: noinline nounwind uwtable
define dso_local i32 @main() #0 {
  %1 = alloca i32, align 4
  %2 = alloca i32, align 4
  %3 = alloca i32, align 4
  %4 = alloca i32, align 4
  %5 = alloca i32, align 4
  store i32 0, i32* %1, align 4
  %6 = call i32 (i8*, ...) @__isoc99_scanf(i8* getelementptr inbounds ([3 x i8], [3 x i8]* @.str, i64 0, i64 0), i32* %2)
  %7 = load i32, i32* %2, align 4
  store i32 %7, i32* %4, align 4
  br label %8

8:                                                ; preds = %16, %0
  %9 = load i32, i32* %4, align 4
  %10 = srem i32 %9, 10
  store i32 %10, i32* %3, align 4
  %11 = load i32, i32* %4, align 4
  store i32 %11, i32* %5, align 4
  %12 = load i32, i32* %4, align 4
  %13 = sdiv i32 %12, 10
  store i32 %13, i32* %4, align 4
  %14 = load i32, i32* %3, align 4
  %15 = call i32 (i8*, ...) @printf(i8* getelementptr inbounds ([3 x i8], [3 x i8]* @.str, i64 0, i64 0), i32 %14)
  br label %16

16:                                               ; preds = %8
  %17 = load i32, i32* %5, align 4
  %18 = sdiv i32 %17, 10
  %19 = icmp ne i32 %18, 0
  br i1 %19, label %8, label %20

20:                                               ; preds = %16
  ret i32 0
}

declare dso_local i32 @__isoc99_scanf(i8*, ...) #1

declare dso_local i32 @printf(i8*, ...) #1


!llvm.module.flags = !{!0}
!llvm.ident = !{!1}

!0 = !{i32 1, !"wchar_size", i32 4}
!1 = !{!"clang version 10.0.0-4ubuntu1 "}
